; Function Attrs: mustprogress uwtable
define noundef zeroext i1 @_ZN3nix30mountAndPidNamespacesSupportedEv() local_unnamed_addr #2 personality ptr @__gxx_personality_v0 {
  %1 = load atomic i8, ptr @_ZGVZN3nix30mountAndPidNamespacesSupportedEvE3res acquire, align 8
  %2 = icmp eq i8 %1, 0
  br i1 %2, label %3, label %9, !prof !4

3:                                                ; preds = %0
  %4 = tail call i32 @__cxa_guard_acquire(ptr nonnull @_ZGVZN3nix30mountAndPidNamespacesSupportedEvE3res) #25
  %.not = icmp eq i32 %4, 0
  br i1 %.not, label %9, label %5

5:                                                ; preds = %3
  %6 = invoke fastcc noundef zeroext i1 @"_ZZN3nix30mountAndPidNamespacesSupportedEvENK3$_0clEv"()
          to label %7 unwind label %13

7:                                                ; preds = %5
  %8 = zext i1 %6 to i8
  store i8 %8, ptr @_ZZN3nix30mountAndPidNamespacesSupportedEvE3res, align 1
  tail call void @__cxa_guard_release(ptr nonnull @_ZGVZN3nix30mountAndPidNamespacesSupportedEvE3res) #25
  br label %9

9:                                                ; preds = %7, %3, %0
  %10 = load i8, ptr @_ZZN3nix30mountAndPidNamespacesSupportedEvE3res, align 1
  %11 = and i8 %10, 1
  %12 = icmp ne i8 %11, 0
  ret i1 %12

13:                                               ; preds = %5
  %14 = landingpad { ptr, i32 }
          cleanup
  tail call void @__cxa_guard_abort(ptr nonnull @_ZGVZN3nix30mountAndPidNamespacesSupportedEvE3res) #25
  resume { ptr, i32 } %14
}